target datalayout = "e-m:e-p270:32:32-p271:32:32-p272:64:64-i64:64-i128:128-f80:128-n8:16:32:64-S128"
target triple = "x86_64-pc-linux-gnu"

%struct.pg_tm = type { i32, i32, i32, i32, i32, i32, i32, i32, i32, i64, ptr }
%struct.FunctionCallInfoBaseData = type { ptr, ptr, ptr, i32, i8, i16, [0 x %struct.NullableDatum] }
%struct.NullableDatum = type { i64, i8 }

@.str.3 = private unnamed_addr constant [7 x i8] c"date.c\00", align 1
@.str.14 = private unnamed_addr constant [32 x i8] c"date out of range for timestamp\00", align 1
@__func__.date2timestamptz_opt_overflow = private unnamed_addr constant [30 x i8] c"date2timestamptz_opt_overflow\00", align 1
@session_timezone = external global ptr, align 8

; Function Attrs: nounwind uwtable
define dso_local i64 @date2timestamptz_opt_overflow(i32 noundef %0, ptr noundef %1) #0 {
  %3 = alloca i64, align 8
  %4 = alloca i32, align 4
  %5 = alloca ptr, align 8
  %6 = alloca i64, align 8
  %7 = alloca %struct.pg_tm, align 8
  %8 = alloca ptr, align 8
  %9 = alloca i32, align 4
  %10 = alloca i32, align 4
  store i32 %0, ptr %4, align 4
  store ptr %1, ptr %5, align 8
  call void @llvm.lifetime.start.p0(i64 8, ptr %6) #9
  call void @llvm.lifetime.start.p0(i64 56, ptr %7) #9
  call void @llvm.lifetime.start.p0(i64 8, ptr %8) #9
  store ptr %7, ptr %8, align 8
  call void @llvm.lifetime.start.p0(i64 4, ptr %9) #9
  %11 = load ptr, ptr %5, align 8
  %12 = icmp ne ptr %11, null
  br i1 %12, label %13, label %15

13:                                               ; preds = %2
  %14 = load ptr, ptr %5, align 8
  store i32 0, ptr %14, align 4
  br label %15

15:                                               ; preds = %13, %2
  %16 = load i32, ptr %4, align 4
  %17 = icmp eq i32 %16, -2147483648
  br i1 %17, label %18, label %22

18:                                               ; preds = %15
  br label %19

19:                                               ; preds = %18
  store i64 -9223372036854775808, ptr %6, align 8
  br label %20

20:                                               ; preds = %19
  br label %21

21:                                               ; preds = %20
  br label %116

22:                                               ; preds = %15
  %23 = load i32, ptr %4, align 4
  %24 = icmp eq i32 %23, 2147483647
  br i1 %24, label %25, label %29

25:                                               ; preds = %22
  br label %26

26:                                               ; preds = %25
  store i64 9223372036854775807, ptr %6, align 8
  br label %27

27:                                               ; preds = %26
  br label %28

28:                                               ; preds = %27
  br label %115

29:                                               ; preds = %22
  %30 = load i32, ptr %4, align 4
  %31 = icmp sge i32 %30, 106751983
  br i1 %31, label %32, label %54

32:                                               ; preds = %29
  %33 = load ptr, ptr %5, align 8
  %34 = icmp ne ptr %33, null
  br i1 %34, label %35, label %41

35:                                               ; preds = %32
  %36 = load ptr, ptr %5, align 8
  store i32 1, ptr %36, align 4
  br label %37

37:                                               ; preds = %35
  store i64 9223372036854775807, ptr %6, align 8
  br label %38

38:                                               ; preds = %37
  br label %39

39:                                               ; preds = %38
  %40 = load i64, ptr %6, align 8
  store i64 %40, ptr %3, align 8
  store i32 1, ptr %10, align 4
  br label %118

41:                                               ; preds = %32
  br label %42

42:                                               ; preds = %41
  br i1 true, label %43, label %45

43:                                               ; preds = %42
  %44 = call zeroext i1 @errstart_cold(i32 noundef 21, ptr noundef null) #8
  br i1 %44, label %47, label %50

45:                                               ; preds = %42
  %46 = call zeroext i1 @errstart(i32 noundef 21, ptr noundef null)
  br i1 %46, label %47, label %50

47:                                               ; preds = %45, %43
  %48 = call i32 @errcode(i32 noundef 134217858)
  %49 = call i32 (ptr, ...) @errmsg(ptr noundef @.str.14)
  call void @errfinish(ptr noundef @.str.3, i32 noundef 675, ptr noundef @__func__.date2timestamptz_opt_overflow)
  br label %50

50:                                               ; preds = %47, %45, %43
  unreachable

51:                                               ; No predecessors!
  br label %52

52:                                               ; preds = %51
  br label %53

53:                                               ; preds = %52
  br label %54

54:                                               ; preds = %53, %29
  %55 = load i32, ptr %4, align 4
  %56 = add i32 %55, 2451545
  %57 = load ptr, ptr %8, align 8
  %58 = getelementptr inbounds nuw %struct.pg_tm, ptr %57, i32 0, i32 5
  %59 = load ptr, ptr %8, align 8
  %60 = getelementptr inbounds nuw %struct.pg_tm, ptr %59, i32 0, i32 4
  %61 = load ptr, ptr %8, align 8
  %62 = getelementptr inbounds nuw %struct.pg_tm, ptr %61, i32 0, i32 3
  call void @j2date(i32 noundef %56, ptr noundef %58, ptr noundef %60, ptr noundef %62)
  %63 = load ptr, ptr %8, align 8
  %64 = getelementptr inbounds nuw %struct.pg_tm, ptr %63, i32 0, i32 2
  store i32 0, ptr %64, align 8
  %65 = load ptr, ptr %8, align 8
  %66 = getelementptr inbounds nuw %struct.pg_tm, ptr %65, i32 0, i32 1
  store i32 0, ptr %66, align 4
  %67 = load ptr, ptr %8, align 8
  %68 = getelementptr inbounds nuw %struct.pg_tm, ptr %67, i32 0, i32 0
  store i32 0, ptr %68, align 8
  %69 = load ptr, ptr %8, align 8
  %70 = load ptr, ptr @session_timezone, align 8
  %71 = call i32 @DetermineTimeZoneOffset(ptr noundef %69, ptr noundef %70)
  store i32 %71, ptr %9, align 4
  %72 = load i32, ptr %4, align 4
  %73 = sext i32 %72 to i64
  %74 = mul i64 %73, 86400000000
  %75 = load i32, ptr %9, align 4
  %76 = sext i32 %75 to i64
  %77 = mul i64 %76, 1000000
  %78 = add i64 %74, %77
  store i64 %78, ptr %6, align 8
  %79 = load i64, ptr %6, align 8
  %80 = icmp sle i64 -211813488000000000, %79
  br i1 %80, label %81, label %84

81:                                               ; preds = %54
  %82 = load i64, ptr %6, align 8
  %83 = icmp slt i64 %82, 9223371331200000000
  br i1 %83, label %114, label %84

84:                                               ; preds = %81, %54
  %85 = load ptr, ptr %5, align 8
  %86 = icmp ne ptr %85, null
  br i1 %86, label %87, label %101

87:                                               ; preds = %84
  %88 = load i64, ptr %6, align 8
  %89 = icmp slt i64 %88, -211813488000000000
  br i1 %89, label %90, label %95

90:                                               ; preds = %87
  %91 = load ptr, ptr %5, align 8
  store i32 -1, ptr %91, align 4
  br label %92

92:                                               ; preds = %90
  store i64 -9223372036854775808, ptr %6, align 8
  br label %93

93:                                               ; preds = %92
  br label %94

94:                                               ; preds = %93
  br label %100

95:                                               ; preds = %87
  %96 = load ptr, ptr %5, align 8
  store i32 1, ptr %96, align 4
  br label %97

97:                                               ; preds = %95
  store i64 9223372036854775807, ptr %6, align 8
  br label %98

98:                                               ; preds = %97
  br label %99

99:                                               ; preds = %98
  br label %100

100:                                              ; preds = %99, %94
  br label %113

101:                                              ; preds = %84
  br label %102

102:                                              ; preds = %101
  br i1 true, label %103, label %105

103:                                              ; preds = %102
  %104 = call zeroext i1 @errstart_cold(i32 noundef 21, ptr noundef null) #8
  br i1 %104, label %107, label %110

105:                                              ; preds = %102
  %106 = call zeroext i1 @errstart(i32 noundef 21, ptr noundef null)
  br i1 %106, label %107, label %110

107:                                              ; preds = %105, %103
  %108 = call i32 @errcode(i32 noundef 134217858)
  %109 = call i32 (ptr, ...) @errmsg(ptr noundef @.str.14)
  call void @errfinish(ptr noundef @.str.3, i32 noundef 711, ptr noundef @__func__.date2timestamptz_opt_overflow)
  br label %110

110:                                              ; preds = %107, %105, %103
  unreachable

111:                                              ; No predecessors!
  br label %112

112:                                              ; preds = %111
  br label %113

113:                                              ; preds = %112, %100
  br label %114

114:                                              ; preds = %113, %81
  br label %115

115:                                              ; preds = %114, %28
  br label %116

116:                                              ; preds = %115, %21
  %117 = load i64, ptr %6, align 8
  store i64 %117, ptr %3, align 8
  store i32 1, ptr %10, align 4
  br label %118

118:                                              ; preds = %116, %39
  call void @llvm.lifetime.end.p0(i64 4, ptr %9) #9
  call void @llvm.lifetime.end.p0(i64 8, ptr %8) #9
  call void @llvm.lifetime.end.p0(i64 56, ptr %7) #9
  call void @llvm.lifetime.end.p0(i64 8, ptr %6) #9
  %119 = load i64, ptr %3, align 8
  ret i64 %119
}

; Function Attrs: inlinehint nounwind uwtable
define internal i32 @DatumGetInt32(i64 noundef %0) #4 {
  %2 = alloca i64, align 8
  store i64 %0, ptr %2, align 8
  %3 = load i64, ptr %2, align 8
  %4 = trunc i64 %3 to i32
  ret i32 %4
}

; Function Attrs: inlinehint nounwind uwtable
define internal i64 @DatumGetInt64(i64 noundef %0) #4 {
  %2 = alloca i64, align 8
  store i64 %0, ptr %2, align 8
  %3 = load i64, ptr %2, align 8
  ret i64 %3
}

; Function Attrs: inlinehint nounwind uwtable
define internal i64 @Int32GetDatum(i32 noundef %0) #4 {
  %2 = alloca i32, align 4
  store i32 %0, ptr %2, align 4
  %3 = load i32, ptr %2, align 4
  %4 = sext i32 %3 to i64
  ret i64 %4
}

; Function Attrs: nounwind uwtable
define dso_local i32 @date_cmp_timestamptz_internal(i32 noundef %0, i64 noundef %1) #0 {
  %3 = alloca i32, align 4
  %4 = alloca i32, align 4
  %5 = alloca i64, align 8
  %6 = alloca i64, align 8
  %7 = alloca i32, align 4
  %8 = alloca i32, align 4
  store i32 %0, ptr %4, align 4
  store i64 %1, ptr %5, align 8
  call void @llvm.lifetime.start.p0(i64 8, ptr %6) #9
  call void @llvm.lifetime.start.p0(i64 4, ptr %7) #9
  %9 = load i32, ptr %4, align 4
  %10 = call i64 @date2timestamptz_opt_overflow(i32 noundef %9, ptr noundef %7)
  store i64 %10, ptr %6, align 8
  %11 = load i32, ptr %7, align 4
  %12 = icmp sgt i32 %11, 0
  br i1 %12, label %13, label %17

13:                                               ; preds = %2
  %14 = load i64, ptr %5, align 8
  %15 = icmp eq i64 %14, 9223372036854775807
  %16 = select i1 %15, i32 -1, i32 1
  store i32 %16, ptr %3, align 4
  store i32 1, ptr %8, align 4
  br label %28

17:                                               ; preds = %2
  %18 = load i32, ptr %7, align 4
  %19 = icmp slt i32 %18, 0
  br i1 %19, label %20, label %24

20:                                               ; preds = %17
  %21 = load i64, ptr %5, align 8
  %22 = icmp eq i64 %21, -9223372036854775808
  %23 = select i1 %22, i32 1, i32 -1
  store i32 %23, ptr %3, align 4
  store i32 1, ptr %8, align 4
  br label %28

24:                                               ; preds = %17
  %25 = load i64, ptr %6, align 8
  %26 = load i64, ptr %5, align 8
  %27 = call i32 @timestamp_cmp_internal(i64 noundef %25, i64 noundef %26)
  store i32 %27, ptr %3, align 4
  store i32 1, ptr %8, align 4
  br label %28

28:                                               ; preds = %24, %20, %13
  call void @llvm.lifetime.end.p0(i64 4, ptr %7) #9
  call void @llvm.lifetime.end.p0(i64 8, ptr %6) #9
  %29 = load i32, ptr %3, align 4
  ret i32 %29
}

; Function Attrs: inlinehint nounwind uwtable
define internal i32 @DatumGetDateADT(i64 noundef %0) #4 {
  %2 = alloca i64, align 8
  store i64 %0, ptr %2, align 8
  %3 = load i64, ptr %2, align 8
  %4 = call i32 @DatumGetInt32(i64 noundef %3)
  ret i32 %4
}

; Function Attrs: inlinehint nounwind uwtable
define internal i64 @DatumGetTimestampTz(i64 noundef %0) #4 {
  %2 = alloca i64, align 8
  store i64 %0, ptr %2, align 8
  %3 = load i64, ptr %2, align 8
  %4 = call i64 @DatumGetInt64(i64 noundef %3)
  ret i64 %4
}

; Function Attrs: nounwind uwtable
define dso_local i64 @timestamptz_cmp_date(ptr noundef %0) #0 {
  %2 = alloca ptr, align 8
  %3 = alloca i64, align 8
  %4 = alloca i32, align 4
  store ptr %0, ptr %2, align 8
  call void @llvm.lifetime.start.p0(i64 8, ptr %3) #9
  %5 = load ptr, ptr %2, align 8
  %6 = getelementptr inbounds nuw %struct.FunctionCallInfoBaseData, ptr %5, i32 0, i32 6
  %7 = getelementptr inbounds [0 x %struct.NullableDatum], ptr %6, i64 0, i64 0
  %8 = getelementptr inbounds nuw %struct.NullableDatum, ptr %7, i32 0, i32 0
  %9 = load i64, ptr %8, align 8
  %10 = call i64 @DatumGetTimestampTz(i64 noundef %9)
  store i64 %10, ptr %3, align 8
  call void @llvm.lifetime.start.p0(i64 4, ptr %4) #9
  %11 = load ptr, ptr %2, align 8
  %12 = getelementptr inbounds nuw %struct.FunctionCallInfoBaseData, ptr %11, i32 0, i32 6
  %13 = getelementptr inbounds [0 x %struct.NullableDatum], ptr %12, i64 0, i64 1
  %14 = getelementptr inbounds nuw %struct.NullableDatum, ptr %13, i32 0, i32 0
  %15 = load i64, ptr %14, align 8
  %16 = call i32 @DatumGetDateADT(i64 noundef %15)
  store i32 %16, ptr %4, align 4
  %17 = load i32, ptr %4, align 4
  %18 = load i64, ptr %3, align 8
  %19 = call i32 @date_cmp_timestamptz_internal(i32 noundef %17, i64 noundef %18)
  %20 = sub i32 0, %19
  %21 = call i64 @Int32GetDatum(i32 noundef %20)
  call void @llvm.lifetime.end.p0(i64 4, ptr %4) #9
  call void @llvm.lifetime.end.p0(i64 8, ptr %3) #9
  ret i64 %21
}